target datalayout = "e-m:e-p270:32:32-p271:32:32-p272:64:64-i64:64-i128:128-f80:128-n8:16:32:64-S128"
target triple = "x86_64-pc-linux-gnu"

%"class.doctest::String" = type { %union.anon.7 }
%union.anon.7 = type { %"struct.doctest::String::view", [8 x i8] }
%"struct.doctest::String::view" = type { ptr, i32, i32 }
%"struct.doctest::MessageData" = type { %"class.doctest::String", ptr, i32, i32 }

; Function Attrs: mustprogress uwtable
define dso_local void @_ZN7doctest6detail14MessageBuilder5reactEv(ptr noundef nonnull align 8 dereferenceable(49) %0) #8 align 2 {
  %2 = alloca ptr, align 8
  store ptr %0, ptr %2, align 8, !tbaa !295
  %3 = load ptr, ptr %2, align 8
  %4 = getelementptr inbounds nuw %"struct.doctest::MessageData", ptr %3, i32 0, i32 3
  %5 = load i32, ptr %4, align 4, !tbaa !303
  %6 = and i32 %5, 4
  %7 = icmp ne i32 %6, 0
  br i1 %7, label %8, label %9

8:                                                ; preds = %1
  call void @_ZN7doctest6detail14throwExceptionEv() #29
  unreachable

9:                                                ; preds = %1
  ret void
}