; Function Attrs: mustprogress uwtable
define dso_local void @_ZN7doctest6detail14MessageBuilder5reactEv(ptr noundef nonnull readonly align 8 captures(none) dereferenceable(49) %0) local_unnamed_addr #8 align 2 {
  %2 = getelementptr inbounds nuw i8, ptr %0, i64 36
  %3 = load i32, ptr %2, align 4, !tbaa !318
  %4 = and i32 %3, 4
  %.not = icmp eq i32 %4, 0
  br i1 %.not, label %6, label %5

5:                                                ; preds = %1
  tail call void @_ZN7doctest6detail14throwExceptionEv() #50
  unreachable

6:                                                ; preds = %1
  ret void
}